#include <math.h>
#include <stdio.h>
#include <stdlib.h>
#include <string.h>

int main(){
    int i,e[100],n,m;
    int sz[100],k[100];
    scanf("%d%d",&n,&m);
    for(i=0;i<n;i++){
       scanf("%d",&(sz[i]));              
                     }
    for(i=0;i<n;i++){
      e[i]=sz[i];
      k[i]=sz[i];              
                    } 
     for(i=n-m;i<n;i++){
                      
      sz[i-n+m]=k[i];                   
                         } 
    for(i=0;i<m;i++){
       printf("%d ",sz[i]);                
                       }                                
    for(i=0;i<n-m;i++){
                       
      sz[m+i]=e[i];               
                     }
    for(i=m;i<n-1;i++){
      printf("%d ",sz[i]);                 
                       }                 
     printf("%d",sz[n-1]);                                  
      scanf("%d",&m);               
     return 0;              
    }