; ModuleID = '52/2528.c'
source_filename = "52/2528.c"
target datalayout = "e-m:e-p270:32:32-p271:32:32-p272:64:64-i64:64-f80:128-n8:16:32:64-S128"
target triple = "x86_64-pc-linux-gnu"

@.str = private unnamed_addr constant [5 x i8] c"%d%d\00", align 1
@.str.1 = private unnamed_addr constant [3 x i8] c"%d\00", align 1
@.str.2 = private unnamed_addr constant [4 x i8] c"%d \00", align 1

; Function Attrs: noinline nounwind uwtable
define dso_local i32 @main() #0 {
  %1 = alloca i32, align 4
  %2 = alloca i32, align 4
  %3 = alloca [100 x i32], align 16
  %4 = alloca i32, align 4
  %5 = alloca i32, align 4
  %6 = alloca [100 x i32], align 16
  %7 = alloca [100 x i32], align 16
  store i32 0, i32* %1, align 4
  %8 = call i32 (i8*, ...) @__isoc99_scanf(i8* getelementptr inbounds ([5 x i8], [5 x i8]* @.str, i64 0, i64 0), i32* %4, i32* %5)
  store i32 0, i32* %2, align 4
  br label %9

9:                                                ; preds = %18, %0
  %10 = load i32, i32* %2, align 4
  %11 = load i32, i32* %4, align 4
  %12 = icmp slt i32 %10, %11
  br i1 %12, label %13, label %21

13:                                               ; preds = %9
  %14 = load i32, i32* %2, align 4
  %15 = sext i32 %14 to i64
  %16 = getelementptr inbounds [100 x i32], [100 x i32]* %6, i64 0, i64 %15
  %17 = call i32 (i8*, ...) @__isoc99_scanf(i8* getelementptr inbounds ([3 x i8], [3 x i8]* @.str.1, i64 0, i64 0), i32* %16)
  br label %18

18:                                               ; preds = %13
  %19 = load i32, i32* %2, align 4
  %20 = add nsw i32 %19, 1
  store i32 %20, i32* %2, align 4
  br label %9

21:                                               ; preds = %9
  store i32 0, i32* %2, align 4
  br label %22

22:                                               ; preds = %41, %21
  %23 = load i32, i32* %2, align 4
  %24 = load i32, i32* %4, align 4
  %25 = icmp slt i32 %23, %24
  br i1 %25, label %26, label %44

26:                                               ; preds = %22
  %27 = load i32, i32* %2, align 4
  %28 = sext i32 %27 to i64
  %29 = getelementptr inbounds [100 x i32], [100 x i32]* %6, i64 0, i64 %28
  %30 = load i32, i32* %29, align 4
  %31 = load i32, i32* %2, align 4
  %32 = sext i32 %31 to i64
  %33 = getelementptr inbounds [100 x i32], [100 x i32]* %3, i64 0, i64 %32
  store i32 %30, i32* %33, align 4
  %34 = load i32, i32* %2, align 4
  %35 = sext i32 %34 to i64
  %36 = getelementptr inbounds [100 x i32], [100 x i32]* %6, i64 0, i64 %35
  %37 = load i32, i32* %36, align 4
  %38 = load i32, i32* %2, align 4
  %39 = sext i32 %38 to i64
  %40 = getelementptr inbounds [100 x i32], [100 x i32]* %7, i64 0, i64 %39
  store i32 %37, i32* %40, align 4
  br label %41

41:                                               ; preds = %26
  %42 = load i32, i32* %2, align 4
  %43 = add nsw i32 %42, 1
  store i32 %43, i32* %2, align 4
  br label %22

44:                                               ; preds = %22
  %45 = load i32, i32* %4, align 4
  %46 = load i32, i32* %5, align 4
  %47 = sub nsw i32 %45, %46
  store i32 %47, i32* %2, align 4
  br label %48

48:                                               ; preds = %64, %44
  %49 = load i32, i32* %2, align 4
  %50 = load i32, i32* %4, align 4
  %51 = icmp slt i32 %49, %50
  br i1 %51, label %52, label %67

52:                                               ; preds = %48
  %53 = load i32, i32* %2, align 4
  %54 = sext i32 %53 to i64
  %55 = getelementptr inbounds [100 x i32], [100 x i32]* %7, i64 0, i64 %54
  %56 = load i32, i32* %55, align 4
  %57 = load i32, i32* %2, align 4
  %58 = load i32, i32* %4, align 4
  %59 = sub nsw i32 %57, %58
  %60 = load i32, i32* %5, align 4
  %61 = add nsw i32 %59, %60
  %62 = sext i32 %61 to i64
  %63 = getelementptr inbounds [100 x i32], [100 x i32]* %6, i64 0, i64 %62
  store i32 %56, i32* %63, align 4
  br label %64

64:                                               ; preds = %52
  %65 = load i32, i32* %2, align 4
  %66 = add nsw i32 %65, 1
  store i32 %66, i32* %2, align 4
  br label %48

67:                                               ; preds = %48
  store i32 0, i32* %2, align 4
  br label %68

68:                                               ; preds = %78, %67
  %69 = load i32, i32* %2, align 4
  %70 = load i32, i32* %5, align 4
  %71 = icmp slt i32 %69, %70
  br i1 %71, label %72, label %81

72:                                               ; preds = %68
  %73 = load i32, i32* %2, align 4
  %74 = sext i32 %73 to i64
  %75 = getelementptr inbounds [100 x i32], [100 x i32]* %6, i64 0, i64 %74
  %76 = load i32, i32* %75, align 4
  %77 = call i32 (i8*, ...) @printf(i8* getelementptr inbounds ([4 x i8], [4 x i8]* @.str.2, i64 0, i64 0), i32 %76)
  br label %78

78:                                               ; preds = %72
  %79 = load i32, i32* %2, align 4
  %80 = add nsw i32 %79, 1
  store i32 %80, i32* %2, align 4
  br label %68

81:                                               ; preds = %68
  store i32 0, i32* %2, align 4
  br label %82

82:                                               ; preds = %98, %81
  %83 = load i32, i32* %2, align 4
  %84 = load i32, i32* %4, align 4
  %85 = load i32, i32* %5, align 4
  %86 = sub nsw i32 %84, %85
  %87 = icmp slt i32 %83, %86
  br i1 %87, label %88, label %101

88:                                               ; preds = %82
  %89 = load i32, i32* %2, align 4
  %90 = sext i32 %89 to i64
  %91 = getelementptr inbounds [100 x i32], [100 x i32]* %3, i64 0, i64 %90
  %92 = load i32, i32* %91, align 4
  %93 = load i32, i32* %5, align 4
  %94 = load i32, i32* %2, align 4
  %95 = add nsw i32 %93, %94
  %96 = sext i32 %95 to i64
  %97 = getelementptr inbounds [100 x i32], [100 x i32]* %6, i64 0, i64 %96
  store i32 %92, i32* %97, align 4
  br label %98

98:                                               ; preds = %88
  %99 = load i32, i32* %2, align 4
  %100 = add nsw i32 %99, 1
  store i32 %100, i32* %2, align 4
  br label %82

101:                                              ; preds = %82
  %102 = load i32, i32* %5, align 4
  store i32 %102, i32* %2, align 4
  br label %103

103:                                              ; preds = %114, %101
  %104 = load i32, i32* %2, align 4
  %105 = load i32, i32* %4, align 4
  %106 = sub nsw i32 %105, 1
  %107 = icmp slt i32 %104, %106
  br i1 %107, label %108, label %117

108:                                              ; preds = %103
  %109 = load i32, i32* %2, align 4
  %110 = sext i32 %109 to i64
  %111 = getelementptr inbounds [100 x i32], [100 x i32]* %6, i64 0, i64 %110
  %112 = load i32, i32* %111, align 4
  %113 = call i32 (i8*, ...) @printf(i8* getelementptr inbounds ([4 x i8], [4 x i8]* @.str.2, i64 0, i64 0), i32 %112)
  br label %114

114:                                              ; preds = %108
  %115 = load i32, i32* %2, align 4
  %116 = add nsw i32 %115, 1
  store i32 %116, i32* %2, align 4
  br label %103

117:                                              ; preds = %103
  %118 = load i32, i32* %4, align 4
  %119 = sub nsw i32 %118, 1
  %120 = sext i32 %119 to i64
  %121 = getelementptr inbounds [100 x i32], [100 x i32]* %6, i64 0, i64 %120
  %122 = load i32, i32* %121, align 4
  %123 = call i32 (i8*, ...) @printf(i8* getelementptr inbounds ([3 x i8], [3 x i8]* @.str.1, i64 0, i64 0), i32 %122)
  %124 = call i32 (i8*, ...) @__isoc99_scanf(i8* getelementptr inbounds ([3 x i8], [3 x i8]* @.str.1, i64 0, i64 0), i32* %5)
  ret i32 0
}

declare dso_local i32 @__isoc99_scanf(i8*, ...) #1

declare dso_local i32 @printf(i8*, ...) #1


!llvm.module.flags = !{!0}
!llvm.ident = !{!1}

!0 = !{i32 1, !"wchar_size", i32 4}
!1 = !{!"clang version 10.0.0-4ubuntu1 "}
